target datalayout = "e-m:e-p270:32:32-p271:32:32-p272:64:64-i64:64-i128:128-f80:128-n8:16:32:64-S128"
target triple = "x86_64-pc-linux-gnu"

%struct.RedisModule = type { ptr, ptr, i32, i32, ptr, ptr, ptr, ptr, ptr, i32, i32, i32, i32, i32, ptr, ptr, ptr, ptr, ptr, i32, i32, i64 }
%struct.sdshdr8 = type { i8, i8, i8, [0 x i8] }
%struct.sdshdr16 = type <{ i16, i16, i8, [0 x i8] }>
%struct.sdshdr32 = type <{ i32, i32, i8, [0 x i8] }>
%struct.sdshdr64 = type <{ i64, i64, i8, [0 x i8] }>
%struct.moduleLoadQueueEntry = type { ptr, i32, ptr }
%struct.dict = type { ptr, [2 x ptr], [2 x i64], i64, i16, [2 x i8], i16, [0 x ptr] }

@modules = dso_local global ptr null, align 8
@.str.137 = private unnamed_addr constant [5 x i8] c"name\00", align 1
@.str.138 = private unnamed_addr constant [4 x i8] c"ver\00", align 1
@.str.139 = private unnamed_addr constant [5 x i8] c"path\00", align 1
@.str.140 = private unnamed_addr constant [5 x i8] c"args\00", align 1

; Function Attrs: inlinehint nounwind uwtable
define internal i64 @sdslen(ptr noundef %0) #10 {
  %2 = alloca i64, align 8
  %3 = alloca ptr, align 8
  %4 = alloca i8, align 1
  %5 = alloca i32, align 4
  store ptr %0, ptr %3, align 8, !tbaa !11
  call void @llvm.lifetime.start.p0(i64 1, ptr %4) #15
  %6 = load ptr, ptr %3, align 8, !tbaa !11
  %7 = getelementptr inbounds i8, ptr %6, i64 -1
  %8 = load i8, ptr %7, align 1, !tbaa !72
  store i8 %8, ptr %4, align 1, !tbaa !72
  %9 = load i8, ptr %4, align 1, !tbaa !72
  %10 = zext i8 %9 to i32
  %11 = and i32 %10, 7
  switch i32 %11, label %40 [
    i32 0, label %12
    i32 1, label %17
    i32 2, label %23
    i32 3, label %29
    i32 4, label %35
  ]

12:                                               ; preds = %1
  %13 = load i8, ptr %4, align 1, !tbaa !72
  %14 = zext i8 %13 to i32
  %15 = ashr i32 %14, 3
  %16 = sext i32 %15 to i64
  store i64 %16, ptr %2, align 8
  store i32 1, ptr %5, align 4
  br label %41

17:                                               ; preds = %1
  %18 = load ptr, ptr %3, align 8, !tbaa !11
  %19 = getelementptr inbounds i8, ptr %18, i64 -3
  %20 = getelementptr inbounds nuw %struct.sdshdr8, ptr %19, i32 0, i32 0
  %21 = load i8, ptr %20, align 1, !tbaa !72
  %22 = zext i8 %21 to i64
  store i64 %22, ptr %2, align 8
  store i32 1, ptr %5, align 4
  br label %41

23:                                               ; preds = %1
  %24 = load ptr, ptr %3, align 8, !tbaa !11
  %25 = getelementptr inbounds i8, ptr %24, i64 -5
  %26 = getelementptr inbounds nuw %struct.sdshdr16, ptr %25, i32 0, i32 0
  %27 = load i16, ptr %26, align 1, !tbaa !314
  %28 = zext i16 %27 to i64
  store i64 %28, ptr %2, align 8
  store i32 1, ptr %5, align 4
  br label %41

29:                                               ; preds = %1
  %30 = load ptr, ptr %3, align 8, !tbaa !11
  %31 = getelementptr inbounds i8, ptr %30, i64 -9
  %32 = getelementptr inbounds nuw %struct.sdshdr32, ptr %31, i32 0, i32 0
  %33 = load i32, ptr %32, align 1, !tbaa !29
  %34 = zext i32 %33 to i64
  store i64 %34, ptr %2, align 8
  store i32 1, ptr %5, align 4
  br label %41

35:                                               ; preds = %1
  %36 = load ptr, ptr %3, align 8, !tbaa !11
  %37 = getelementptr inbounds i8, ptr %36, i64 -17
  %38 = getelementptr inbounds nuw %struct.sdshdr64, ptr %37, i32 0, i32 0
  %39 = load i64, ptr %38, align 1, !tbaa !5
  store i64 %39, ptr %2, align 8
  store i32 1, ptr %5, align 4
  br label %41

40:                                               ; preds = %1
  store i64 0, ptr %2, align 8
  store i32 1, ptr %5, align 4
  br label %41

41:                                               ; preds = %40, %35, %29, %23, %17, %12
  call void @llvm.lifetime.end.p0(i64 1, ptr %4) #15
  %42 = load i64, ptr %2, align 8
  ret i64 %42
}

; Function Attrs: nounwind uwtable
define dso_local void @addReplyLoadedModules(ptr noundef %0) #0 {
  %2 = alloca ptr, align 8
  %3 = alloca i64, align 8
  %4 = alloca i32, align 4
  %5 = alloca ptr, align 8
  %6 = alloca ptr, align 8
  %7 = alloca ptr, align 8
  %8 = alloca ptr, align 8
  %9 = alloca ptr, align 8
  %10 = alloca i32, align 4
  store ptr %0, ptr %2, align 8, !tbaa !31
  call void @llvm.lifetime.start.p0(i64 8, ptr %3) #15
  %11 = load ptr, ptr @modules, align 8, !tbaa !258
  %12 = getelementptr inbounds nuw %struct.dict, ptr %11, i32 0, i32 2
  %13 = getelementptr inbounds [2 x i64], ptr %12, i64 0, i64 0
  %14 = load i64, ptr %13, align 8, !tbaa !5
  %15 = load ptr, ptr @modules, align 8, !tbaa !258
  %16 = getelementptr inbounds nuw %struct.dict, ptr %15, i32 0, i32 2
  %17 = getelementptr inbounds [2 x i64], ptr %16, i64 0, i64 1
  %18 = load i64, ptr %17, align 8, !tbaa !5
  %19 = add i64 %14, %18
  store i64 %19, ptr %3, align 8, !tbaa !5
  %20 = load ptr, ptr %2, align 8, !tbaa !31
  %21 = load i64, ptr %3, align 8, !tbaa !5
  call void @addReplyArrayLen(ptr noundef %20, i64 noundef %21)
  %22 = load i64, ptr %3, align 8, !tbaa !5
  %23 = icmp eq i64 %22, 0
  br i1 %23, label %24, label %25

24:                                               ; preds = %1
  store i32 1, ptr %4, align 4
  br label %93

25:                                               ; preds = %1
  call void @llvm.lifetime.start.p0(i64 8, ptr %5) #15
  %26 = load ptr, ptr @modules, align 8, !tbaa !258
  %27 = call ptr @dictGetIterator(ptr noundef %26)
  store ptr %27, ptr %5, align 8, !tbaa !457
  call void @llvm.lifetime.start.p0(i64 8, ptr %6) #15
  br label %28

28:                                               ; preds = %90, %25
  %29 = load ptr, ptr %5, align 8, !tbaa !457
  %30 = call ptr @dictNext(ptr noundef %29)
  store ptr %30, ptr %6, align 8, !tbaa !94
  %31 = icmp ne ptr %30, null
  br i1 %31, label %32, label %91

32:                                               ; preds = %28
  call void @llvm.lifetime.start.p0(i64 8, ptr %7) #15
  %33 = load ptr, ptr %6, align 8, !tbaa !94
  %34 = call ptr @dictGetKey(ptr noundef %33)
  store ptr %34, ptr %7, align 8, !tbaa !11
  call void @llvm.lifetime.start.p0(i64 8, ptr %8) #15
  %35 = load ptr, ptr %6, align 8, !tbaa !94
  %36 = call ptr @dictGetVal(ptr noundef %35)
  store ptr %36, ptr %8, align 8, !tbaa !115
  call void @llvm.lifetime.start.p0(i64 8, ptr %9) #15
  %37 = load ptr, ptr %8, align 8, !tbaa !115
  %38 = getelementptr inbounds nuw %struct.RedisModule, ptr %37, i32 0, i32 18
  %39 = load ptr, ptr %38, align 8, !tbaa !280
  %40 = getelementptr inbounds nuw %struct.moduleLoadQueueEntry, ptr %39, i32 0, i32 0
  %41 = load ptr, ptr %40, align 8, !tbaa !741
  store ptr %41, ptr %9, align 8, !tbaa !11
  %42 = load ptr, ptr %2, align 8, !tbaa !31
  call void @addReplyMapLen(ptr noundef %42, i64 noundef 4)
  %43 = load ptr, ptr %2, align 8, !tbaa !31
  call void @addReplyBulkCString(ptr noundef %43, ptr noundef @.str.137)
  %44 = load ptr, ptr %2, align 8, !tbaa !31
  %45 = load ptr, ptr %7, align 8, !tbaa !11
  %46 = load ptr, ptr %7, align 8, !tbaa !11
  %47 = call i64 @sdslen(ptr noundef %46)
  call void @addReplyBulkCBuffer(ptr noundef %44, ptr noundef %45, i64 noundef %47)
  %48 = load ptr, ptr %2, align 8, !tbaa !31
  call void @addReplyBulkCString(ptr noundef %48, ptr noundef @.str.138)
  %49 = load ptr, ptr %2, align 8, !tbaa !31
  %50 = load ptr, ptr %8, align 8, !tbaa !115
  %51 = getelementptr inbounds nuw %struct.RedisModule, ptr %50, i32 0, i32 2
  %52 = load i32, ptr %51, align 8, !tbaa !264
  %53 = sext i32 %52 to i64
  call void @addReplyLongLong(ptr noundef %49, i64 noundef %53)
  %54 = load ptr, ptr %2, align 8, !tbaa !31
  call void @addReplyBulkCString(ptr noundef %54, ptr noundef @.str.139)
  %55 = load ptr, ptr %2, align 8, !tbaa !31
  %56 = load ptr, ptr %9, align 8, !tbaa !11
  %57 = load ptr, ptr %9, align 8, !tbaa !11
  %58 = call i64 @sdslen(ptr noundef %57)
  call void @addReplyBulkCBuffer(ptr noundef %55, ptr noundef %56, i64 noundef %58)
  %59 = load ptr, ptr %2, align 8, !tbaa !31
  call void @addReplyBulkCString(ptr noundef %59, ptr noundef @.str.140)
  %60 = load ptr, ptr %2, align 8, !tbaa !31
  %61 = load ptr, ptr %8, align 8, !tbaa !115
  %62 = getelementptr inbounds nuw %struct.RedisModule, ptr %61, i32 0, i32 18
  %63 = load ptr, ptr %62, align 8, !tbaa !280
  %64 = getelementptr inbounds nuw %struct.moduleLoadQueueEntry, ptr %63, i32 0, i32 1
  %65 = load i32, ptr %64, align 8, !tbaa !743
  %66 = sext i32 %65 to i64
  call void @addReplyArrayLen(ptr noundef %60, i64 noundef %66)
  call void @llvm.lifetime.start.p0(i64 4, ptr %10) #15
  store i32 0, ptr %10, align 4, !tbaa !29
  br label %67

67:                                               ; preds = %87, %32
  %68 = load i32, ptr %10, align 4, !tbaa !29
  %69 = load ptr, ptr %8, align 8, !tbaa !115
  %70 = getelementptr inbounds nuw %struct.RedisModule, ptr %69, i32 0, i32 18
  %71 = load ptr, ptr %70, align 8, !tbaa !280
  %72 = getelementptr inbounds nuw %struct.moduleLoadQueueEntry, ptr %71, i32 0, i32 1
  %73 = load i32, ptr %72, align 8, !tbaa !743
  %74 = icmp slt i32 %68, %73
  br i1 %74, label %76, label %75

75:                                               ; preds = %67
  store i32 4, ptr %4, align 4
  call void @llvm.lifetime.end.p0(i64 4, ptr %10) #15
  br label %90

76:                                               ; preds = %67
  %77 = load ptr, ptr %2, align 8, !tbaa !31
  %78 = load ptr, ptr %8, align 8, !tbaa !115
  %79 = getelementptr inbounds nuw %struct.RedisModule, ptr %78, i32 0, i32 18
  %80 = load ptr, ptr %79, align 8, !tbaa !280
  %81 = getelementptr inbounds nuw %struct.moduleLoadQueueEntry, ptr %80, i32 0, i32 2
  %82 = load ptr, ptr %81, align 8, !tbaa !744
  %83 = load i32, ptr %10, align 4, !tbaa !29
  %84 = sext i32 %83 to i64
  %85 = getelementptr inbounds ptr, ptr %82, i64 %84
  %86 = load ptr, ptr %85, align 8, !tbaa !69
  call void @addReplyBulk(ptr noundef %77, ptr noundef %86)
  br label %87

87:                                               ; preds = %76
  %88 = load i32, ptr %10, align 4, !tbaa !29
  %89 = add nsw i32 %88, 1
  store i32 %89, ptr %10, align 4, !tbaa !29
  br label %67, !llvm.loop !769

90:                                               ; preds = %75
  call void @llvm.lifetime.end.p0(i64 8, ptr %9) #15
  call void @llvm.lifetime.end.p0(i64 8, ptr %8) #15
  call void @llvm.lifetime.end.p0(i64 8, ptr %7) #15
  br label %28, !llvm.loop !770

91:                                               ; preds = %28
  %92 = load ptr, ptr %5, align 8, !tbaa !457
  call void @dictReleaseIterator(ptr noundef %92)
  call void @llvm.lifetime.end.p0(i64 8, ptr %6) #15
  call void @llvm.lifetime.end.p0(i64 8, ptr %5) #15
  store i32 0, ptr %4, align 4
  br label %93

93:                                               ; preds = %91, %24
  call void @llvm.lifetime.end.p0(i64 8, ptr %3) #15
  %94 = load i32, ptr %4, align 4
  switch i32 %94, label %96 [
    i32 0, label %95
    i32 1, label %95
  ]

95:                                               ; preds = %93, %93
  ret void

96:                                               ; preds = %93
  unreachable
}