; Function Attrs: nounwind uwtable
define dso_local void @addReplyLoadedModules(ptr noundef %0) local_unnamed_addr #0 {
  %2 = load ptr, ptr @modules, align 8, !tbaa !241
  %3 = getelementptr inbounds nuw i8, ptr %2, i64 24
  %4 = load i64, ptr %3, align 8, !tbaa !24
  %5 = getelementptr inbounds nuw i8, ptr %2, i64 32
  %6 = load i64, ptr %5, align 8, !tbaa !24
  %7 = add i64 %6, %4
  tail call void @addReplyArrayLen(ptr noundef %0, i64 noundef %7) #35
  %8 = icmp eq i64 %7, 0
  br i1 %8, label %85, label %9

9:                                                ; preds = %1
  %10 = load ptr, ptr @modules, align 8, !tbaa !241
  %11 = tail call ptr @dictGetIterator(ptr noundef %10) #35
  %12 = tail call ptr @dictNext(ptr noundef %11) #35
  %.not32 = icmp eq ptr %12, null
  br i1 %.not32, label %._crit_edge, label %.lr.ph33

.loopexit:                                        ; preds = %.lr.ph, %sdslen.exit30
  %13 = tail call ptr @dictNext(ptr noundef %11) #35
  %.not = icmp eq ptr %13, null
  br i1 %.not, label %._crit_edge, label %.lr.ph33, !llvm.loop !655

.lr.ph33:                                         ; preds = %9, %.loopexit
  %14 = phi ptr [ %13, %.loopexit ], [ %12, %9 ]
  %15 = tail call ptr @dictGetKey(ptr noundef nonnull %14) #35
  %16 = tail call ptr @dictGetVal(ptr noundef nonnull %14) #35
  %17 = getelementptr inbounds nuw i8, ptr %16, i64 120
  %18 = load ptr, ptr %17, align 8, !tbaa !639
  %19 = load ptr, ptr %18, align 8, !tbaa !627
  tail call void @addReplyMapLen(ptr noundef %0, i64 noundef 4) #35
  tail call void @addReplyBulkCString(ptr noundef %0, ptr noundef nonnull @.str.137) #35
  %20 = getelementptr inbounds i8, ptr %15, i64 -1
  %21 = load i8, ptr %20, align 1, !tbaa !60
  %22 = zext i8 %21 to i32
  %23 = and i32 %22, 7
  switch i32 %23, label %sdslen.exit [
    i32 0, label %24
    i32 1, label %27
    i32 2, label %31
    i32 3, label %35
    i32 4, label %39
  ]

24:                                               ; preds = %.lr.ph33
  %25 = lshr i32 %22, 3
  %26 = zext nneg i32 %25 to i64
  br label %sdslen.exit

27:                                               ; preds = %.lr.ph33
  %28 = getelementptr inbounds i8, ptr %15, i64 -3
  %29 = load i8, ptr %28, align 1, !tbaa !60
  %30 = zext i8 %29 to i64
  br label %sdslen.exit

31:                                               ; preds = %.lr.ph33
  %32 = getelementptr inbounds i8, ptr %15, i64 -5
  %33 = load i16, ptr %32, align 1, !tbaa !270
  %34 = zext i16 %33 to i64
  br label %sdslen.exit

35:                                               ; preds = %.lr.ph33
  %36 = getelementptr inbounds i8, ptr %15, i64 -9
  %37 = load i32, ptr %36, align 1, !tbaa !22
  %38 = zext i32 %37 to i64
  br label %sdslen.exit

39:                                               ; preds = %.lr.ph33
  %40 = getelementptr inbounds i8, ptr %15, i64 -17
  %41 = load i64, ptr %40, align 1, !tbaa !24
  br label %sdslen.exit

sdslen.exit:                                      ; preds = %.lr.ph33, %24, %27, %31, %35, %39
  %.0.i = phi i64 [ %41, %39 ], [ %38, %35 ], [ %34, %31 ], [ %30, %27 ], [ %26, %24 ], [ 0, %.lr.ph33 ]
  tail call void @addReplyBulkCBuffer(ptr noundef %0, ptr noundef nonnull %15, i64 noundef %.0.i) #35
  tail call void @addReplyBulkCString(ptr noundef %0, ptr noundef nonnull @.str.138) #35
  %42 = getelementptr inbounds nuw i8, ptr %16, i64 16
  %43 = load i32, ptr %42, align 8, !tbaa !245
  %44 = sext i32 %43 to i64
  tail call void @addReplyLongLong(ptr noundef %0, i64 noundef %44) #35
  tail call void @addReplyBulkCString(ptr noundef %0, ptr noundef nonnull @.str.139) #35
  %45 = getelementptr inbounds i8, ptr %19, i64 -1
  %46 = load i8, ptr %45, align 1, !tbaa !60
  %47 = zext i8 %46 to i32
  %48 = and i32 %47, 7
  switch i32 %48, label %sdslen.exit30 [
    i32 0, label %49
    i32 1, label %52
    i32 2, label %56
    i32 3, label %60
    i32 4, label %64
  ]

49:                                               ; preds = %sdslen.exit
  %50 = lshr i32 %47, 3
  %51 = zext nneg i32 %50 to i64
  br label %sdslen.exit30

52:                                               ; preds = %sdslen.exit
  %53 = getelementptr inbounds i8, ptr %19, i64 -3
  %54 = load i8, ptr %53, align 1, !tbaa !60
  %55 = zext i8 %54 to i64
  br label %sdslen.exit30

56:                                               ; preds = %sdslen.exit
  %57 = getelementptr inbounds i8, ptr %19, i64 -5
  %58 = load i16, ptr %57, align 1, !tbaa !270
  %59 = zext i16 %58 to i64
  br label %sdslen.exit30

60:                                               ; preds = %sdslen.exit
  %61 = getelementptr inbounds i8, ptr %19, i64 -9
  %62 = load i32, ptr %61, align 1, !tbaa !22
  %63 = zext i32 %62 to i64
  br label %sdslen.exit30

64:                                               ; preds = %sdslen.exit
  %65 = getelementptr inbounds i8, ptr %19, i64 -17
  %66 = load i64, ptr %65, align 1, !tbaa !24
  br label %sdslen.exit30

sdslen.exit30:                                    ; preds = %sdslen.exit, %49, %52, %56, %60, %64
  %.0.i29 = phi i64 [ %66, %64 ], [ %63, %60 ], [ %59, %56 ], [ %55, %52 ], [ %51, %49 ], [ 0, %sdslen.exit ]
  tail call void @addReplyBulkCBuffer(ptr noundef %0, ptr noundef nonnull %19, i64 noundef %.0.i29) #35
  tail call void @addReplyBulkCString(ptr noundef %0, ptr noundef nonnull @.str.140) #35
  %67 = load ptr, ptr %17, align 8, !tbaa !639
  %68 = getelementptr inbounds nuw i8, ptr %67, i64 8
  %69 = load i32, ptr %68, align 8, !tbaa !629
  %70 = sext i32 %69 to i64
  tail call void @addReplyArrayLen(ptr noundef %0, i64 noundef %70) #35
  %71 = load ptr, ptr %17, align 8, !tbaa !639
  %72 = getelementptr inbounds nuw i8, ptr %71, i64 8
  %73 = load i32, ptr %72, align 8, !tbaa !629
  %74 = icmp sgt i32 %73, 0
  br i1 %74, label %.lr.ph, label %.loopexit

.lr.ph:                                           ; preds = %sdslen.exit30, %.lr.ph
  %indvars.iv = phi i64 [ %indvars.iv.next, %.lr.ph ], [ 0, %sdslen.exit30 ]
  %75 = phi ptr [ %80, %.lr.ph ], [ %71, %sdslen.exit30 ]
  %76 = getelementptr inbounds nuw i8, ptr %75, i64 16
  %77 = load ptr, ptr %76, align 8, !tbaa !630
  %78 = getelementptr inbounds nuw ptr, ptr %77, i64 %indvars.iv
  %79 = load ptr, ptr %78, align 8, !tbaa !141
  tail call void @addReplyBulk(ptr noundef %0, ptr noundef %79) #35
  %indvars.iv.next = add nuw nsw i64 %indvars.iv, 1
  %80 = load ptr, ptr %17, align 8, !tbaa !639
  %81 = getelementptr inbounds nuw i8, ptr %80, i64 8
  %82 = load i32, ptr %81, align 8, !tbaa !629
  %83 = sext i32 %82 to i64
  %84 = icmp slt i64 %indvars.iv.next, %83
  br i1 %84, label %.lr.ph, label %.loopexit, !llvm.loop !656

._crit_edge:                                      ; preds = %.loopexit, %9
  tail call void @dictReleaseIterator(ptr noundef %11) #35
  br label %85

85:                                               ; preds = %1, %._crit_edge
  ret void
}